; Function Attrs: nounwind uwtable
define dso_local void @trace2_region_enter_printf_va_fl(ptr noundef %0, i32 noundef %1, ptr noundef %2, ptr noundef %3, ptr noundef %4, ptr noundef %5, ptr noundef %6) local_unnamed_addr #0 {
  %.b = load i1, ptr @trace2_enabled, align 4
  br i1 %.b, label %8, label %23

8:                                                ; preds = %7
  %9 = tail call i64 @getnanotime() #11
  %10 = udiv i64 %9, 1000
  %11 = tail call i64 @tr2tls_absolute_elapsed(i64 noundef %10) #11
  br label %12

12:                                               ; preds = %8, %19
  %indvars.iv = phi i64 [ 0, %8 ], [ %indvars.iv.next, %19 ]
  %.021 = phi ptr [ @tr2_tgt_normal, %8 ], [ %21, %19 ]
  %13 = load ptr, ptr %.021, align 8, !tbaa !14
  %14 = tail call i32 @tr2_dst_trace_want(ptr noundef %13) #11
  %.not18 = icmp eq i32 %14, 0
  br i1 %.not18, label %19, label %15

15:                                               ; preds = %12
  %16 = getelementptr inbounds nuw i8, ptr %.021, i64 184
  %17 = load ptr, ptr %16, align 8, !tbaa !70
  %.not19 = icmp eq ptr %17, null
  br i1 %.not19, label %19, label %18

18:                                               ; preds = %15
  tail call void %17(ptr noundef %0, i32 noundef %1, i64 noundef %11, ptr noundef %2, ptr noundef %3, ptr noundef %4, ptr noundef %5, ptr noundef %6) #11
  br label %19

19:                                               ; preds = %12, %18, %15
  %indvars.iv.next = add nuw nsw i64 %indvars.iv, 1
  %20 = getelementptr inbounds nuw [4 x ptr], ptr @tr2_tgt_builtins, i64 0, i64 %indvars.iv.next
  %21 = load ptr, ptr %20, align 8, !tbaa !10
  %.not = icmp eq i64 %indvars.iv.next, 3
  br i1 %.not, label %22, label %12, !llvm.loop !71

22:                                               ; preds = %19
  tail call void @tr2tls_push_self(i64 noundef %10) #11
  br label %23

23:                                               ; preds = %7, %22
  ret void
}